; Function Attrs: mustprogress ssp uwtable
define internal fastcc void @"_ZNO8pybind116detail15argument_loaderIJRKN6open3d4core6TensorES6_EE4callIS4_NS0_9void_typeERZNS3_L14pybind_getitemERNS_6class_IS4_JEEEE3$_4EENSt9enable_ifIXntsr3std7is_voidIT_EE5valueESG_E4typeEOT1_"(ptr dead_on_unwind noalias nonnull writable align 8 %0, ptr %.16.val, ptr %.48.val) unnamed_addr #5 align 2 personality ptr @__gxx_personality_v0 !type !2048 {
  %2 = alloca %"class.open3d::core::TensorKey", align 8
  %.not.i.i.i = icmp eq ptr %.48.val, null
  br i1 %.not.i.i.i, label %3, label %_ZN8pybind116detail7cast_opIRKN6open3d4core6TensorEEENS0_11type_casterINS0_14intrinsic_typeIT_E4typeEvE12cast_op_typeINSt20add_rvalue_referenceIS9_E4typeEEEOSC_.exit.i

3:                                                ; preds = %1
  %4 = tail call ptr @__cxa_allocate_exception(i64 16) #33, !noalias !2050
  invoke void @_ZN8pybind1120reference_cast_errorC2Ev(ptr noundef nonnull align 8 dereferenceable(16) %4)
          to label %5 unwind label %6, !noalias !2050

5:                                                ; preds = %3
  tail call void @__cxa_throw(ptr nonnull %4, ptr nonnull @_ZTIN8pybind1120reference_cast_errorE, ptr nonnull @_ZNSt13runtime_errorD2Ev) #35, !noalias !2050
  unreachable

common.resume.i:                                  ; preds = %37, %11, %6
  %common.resume.op.i = phi { ptr, i32 } [ %7, %6 ], [ %12, %11 ], [ %38, %37 ]
  resume { ptr, i32 } %common.resume.op.i

6:                                                ; preds = %3
  %7 = landingpad { ptr, i32 }
          cleanup
  tail call void @__cxa_free_exception(ptr nonnull %4) #33, !noalias !2050
  br label %common.resume.i

_ZN8pybind116detail7cast_opIRKN6open3d4core6TensorEEENS0_11type_casterINS0_14intrinsic_typeIT_E4typeEvE12cast_op_typeINSt20add_rvalue_referenceIS9_E4typeEEEOSC_.exit.i: ; preds = %1
  %.not.i.i2.i = icmp eq ptr %.16.val, null
  br i1 %.not.i.i2.i, label %8, label %_ZN8pybind116detail7cast_opIRKN6open3d4core6TensorEEENS0_11type_casterINS0_14intrinsic_typeIT_E4typeEvE12cast_op_typeINSt20add_rvalue_referenceIS9_E4typeEEEOSC_.exit3.i

8:                                                ; preds = %_ZN8pybind116detail7cast_opIRKN6open3d4core6TensorEEENS0_11type_casterINS0_14intrinsic_typeIT_E4typeEvE12cast_op_typeINSt20add_rvalue_referenceIS9_E4typeEEEOSC_.exit.i
  %9 = tail call ptr @__cxa_allocate_exception(i64 16) #33, !noalias !2050
  invoke void @_ZN8pybind1120reference_cast_errorC2Ev(ptr noundef nonnull align 8 dereferenceable(16) %9)
          to label %10 unwind label %11, !noalias !2050

10:                                               ; preds = %8
  tail call void @__cxa_throw(ptr nonnull %9, ptr nonnull @_ZTIN8pybind1120reference_cast_errorE, ptr nonnull @_ZNSt13runtime_errorD2Ev) #35, !noalias !2050
  unreachable

11:                                               ; preds = %8
  %12 = landingpad { ptr, i32 }
          cleanup
  tail call void @__cxa_free_exception(ptr nonnull %9) #33, !noalias !2050
  br label %common.resume.i

_ZN8pybind116detail7cast_opIRKN6open3d4core6TensorEEENS0_11type_casterINS0_14intrinsic_typeIT_E4typeEvE12cast_op_typeINSt20add_rvalue_referenceIS9_E4typeEEEOSC_.exit3.i: ; preds = %_ZN8pybind116detail7cast_opIRKN6open3d4core6TensorEEENS0_11type_casterINS0_14intrinsic_typeIT_E4typeEvE12cast_op_typeINSt20add_rvalue_referenceIS9_E4typeEEEOSC_.exit.i
  call void @llvm.lifetime.start.p0(i64 16, ptr nonnull %2) #33, !noalias !2053
  call fastcc void @_ZN6open3d4coreL11ToTensorKeyERKNS0_6TensorE(ptr dead_on_unwind noalias writable align 8 %2, ptr noundef nonnull align 8 dereferenceable(160) %.16.val), !noalias !2053
  invoke void @_ZNK6open3d4core6Tensor7GetItemERKNS0_9TensorKeyE(ptr dead_on_unwind nonnull writable sret(%"class.open3d::core::Tensor") align 8 %0, ptr noundef nonnull align 8 dereferenceable(160) %.48.val, ptr noundef nonnull align 8 dereferenceable(16) %2)
          to label %13 unwind label %37

13:                                               ; preds = %_ZN8pybind116detail7cast_opIRKN6open3d4core6TensorEEENS0_11type_casterINS0_14intrinsic_typeIT_E4typeEvE12cast_op_typeINSt20add_rvalue_referenceIS9_E4typeEEEOSC_.exit3.i
  %14 = getelementptr inbounds nuw i8, ptr %2, i64 8
  %15 = load ptr, ptr %14, align 8, !tbaa !294, !noalias !2053
  %.not.i.i.i.i.i = icmp eq ptr %15, null
  br i1 %.not.i.i.i.i.i, label %"_ZNO8pybind116detail15argument_loaderIJRKN6open3d4core6TensorES6_EE9call_implIS4_RZNS3_L14pybind_getitemERNS_6class_IS4_JEEEE3$_4JLm0ELm1EENS0_9void_typeEEET_OT0_St16integer_sequenceImJXspT1_EEEOT2_.exit", label %16

16:                                               ; preds = %13
  %17 = getelementptr inbounds nuw i8, ptr %15, i64 8
  %18 = load atomic i64, ptr %17 acquire, align 8
  %19 = icmp eq i64 %18, 4294967297
  %20 = trunc i64 %18 to i32
  br i1 %19, label %21, label %29

21:                                               ; preds = %16
  store i32 0, ptr %17, align 8, !tbaa !295
  %22 = getelementptr inbounds nuw i8, ptr %15, i64 12
  store i32 0, ptr %22, align 4, !tbaa !297
  %23 = load ptr, ptr %15, align 8, !tbaa !292
  %24 = getelementptr inbounds nuw i8, ptr %23, i64 16
  %25 = load ptr, ptr %24, align 8
  call void %25(ptr noundef nonnull align 8 dereferenceable(16) %15) #33
  %26 = load ptr, ptr %15, align 8, !tbaa !292
  %27 = getelementptr inbounds nuw i8, ptr %26, i64 24
  %28 = load ptr, ptr %27, align 8
  call void %28(ptr noundef nonnull align 8 dereferenceable(16) %15) #33
  br label %"_ZNO8pybind116detail15argument_loaderIJRKN6open3d4core6TensorES6_EE9call_implIS4_RZNS3_L14pybind_getitemERNS_6class_IS4_JEEEE3$_4JLm0ELm1EENS0_9void_typeEEET_OT0_St16integer_sequenceImJXspT1_EEEOT2_.exit"

29:                                               ; preds = %16
  %30 = load i8, ptr @__libc_single_threaded, align 1, !tbaa !136, !noalias !2053
  %.not.i.i.i.i.i.i = icmp eq i8 %30, 0
  br i1 %.not.i.i.i.i.i.i, label %33, label %31

31:                                               ; preds = %29
  %32 = add nsw i32 %20, -1
  store i32 %32, ptr %17, align 4, !tbaa !298
  br label %_ZN9__gnu_cxx27__exchange_and_add_dispatchEPii.exit.i.i.i.i.i.i

33:                                               ; preds = %29
  %34 = atomicrmw volatile add ptr %17, i32 -1 acq_rel, align 4
  br label %_ZN9__gnu_cxx27__exchange_and_add_dispatchEPii.exit.i.i.i.i.i.i

_ZN9__gnu_cxx27__exchange_and_add_dispatchEPii.exit.i.i.i.i.i.i: ; preds = %33, %31
  %.0.i.i.i.i.i.i.i = phi i32 [ %20, %31 ], [ %34, %33 ]
  %35 = icmp eq i32 %.0.i.i.i.i.i.i.i, 1
  br i1 %35, label %36, label %"_ZNO8pybind116detail15argument_loaderIJRKN6open3d4core6TensorES6_EE9call_implIS4_RZNS3_L14pybind_getitemERNS_6class_IS4_JEEEE3$_4JLm0ELm1EENS0_9void_typeEEET_OT0_St16integer_sequenceImJXspT1_EEEOT2_.exit", !prof !299

36:                                               ; preds = %_ZN9__gnu_cxx27__exchange_and_add_dispatchEPii.exit.i.i.i.i.i.i
  call void @_ZNSt16_Sp_counted_baseILN9__gnu_cxx12_Lock_policyE2EE24_M_release_last_use_coldEv(ptr noundef nonnull align 8 dereferenceable(16) %15) #33
  br label %"_ZNO8pybind116detail15argument_loaderIJRKN6open3d4core6TensorES6_EE9call_implIS4_RZNS3_L14pybind_getitemERNS_6class_IS4_JEEEE3$_4JLm0ELm1EENS0_9void_typeEEET_OT0_St16integer_sequenceImJXspT1_EEEOT2_.exit"

37:                                               ; preds = %_ZN8pybind116detail7cast_opIRKN6open3d4core6TensorEEENS0_11type_casterINS0_14intrinsic_typeIT_E4typeEvE12cast_op_typeINSt20add_rvalue_referenceIS9_E4typeEEEOSC_.exit3.i
  %38 = landingpad { ptr, i32 }
          cleanup
  call void @_ZN6open3d4core9TensorKeyD2Ev(ptr noundef nonnull align 8 dereferenceable(16) %2) #33
  call void @llvm.lifetime.end.p0(i64 16, ptr nonnull %2) #33, !noalias !2053
  br label %common.resume.i

"_ZNO8pybind116detail15argument_loaderIJRKN6open3d4core6TensorES6_EE9call_implIS4_RZNS3_L14pybind_getitemERNS_6class_IS4_JEEEE3$_4JLm0ELm1EENS0_9void_typeEEET_OT0_St16integer_sequenceImJXspT1_EEEOT2_.exit": ; preds = %13, %21, %_ZN9__gnu_cxx27__exchange_and_add_dispatchEPii.exit.i.i.i.i.i.i, %36
  call void @llvm.lifetime.end.p0(i64 16, ptr nonnull %2) #33, !noalias !2053
  ret void
}